target datalayout = "e-m:e-p270:32:32-p271:32:32-p272:64:64-i64:64-i128:128-f80:128-n8:16:32:64-S128"
target triple = "x86_64-pc-linux-gnu"

%struct._zend_array = type { %struct._zend_refcounted_h, %union.anon.1, i32, %union.anon.2, i32, i32, i32, i32, i64, ptr }
%struct._zend_refcounted_h = type { i32, %union.anon.0 }
%union.anon.0 = type { i32 }
%union.anon.1 = type { i32 }
%union.anon.2 = type { ptr }
%struct._zend_class_entry = type { i8, ptr, %union.anon, i32, i32, i32, i32, ptr, ptr, ptr, %struct._zend_array, %struct._zend_array, %struct._zend_array, ptr, ptr, ptr, ptr, ptr, ptr, ptr, ptr, ptr, ptr, ptr, ptr, ptr, ptr, ptr, ptr, ptr, ptr, ptr, %union.anon.3, ptr, ptr, ptr, ptr, i32, i32, i32, i32, %union.anon.4, ptr, ptr, ptr, ptr, i32, ptr, ptr, %union.anon.5 }
%union.anon = type { ptr }
%union.anon.3 = type { ptr }
%union.anon.4 = type { ptr }
%union.anon.5 = type { %struct.anon.6 }
%struct.anon.6 = type { ptr, i32, i32 }
%struct._zend_class_name = type { ptr, ptr }

; Function Attrs: alwaysinline nounwind uwtable
define internal zeroext i1 @instanceof_function(ptr noundef %0, ptr noundef %1) #3 {
  %3 = alloca ptr, align 8
  %4 = alloca ptr, align 8
  store ptr %0, ptr %3, align 8, !tbaa !8
  store ptr %1, ptr %4, align 8, !tbaa !8
  %5 = load ptr, ptr %3, align 8, !tbaa !8
  %6 = load ptr, ptr %4, align 8, !tbaa !8
  %7 = icmp eq ptr %5, %6
  br i1 %7, label %12, label %8

8:                                                ; preds = %2
  %9 = load ptr, ptr %3, align 8, !tbaa !8
  %10 = load ptr, ptr %4, align 8, !tbaa !8
  %11 = call zeroext i1 @instanceof_function_slow(ptr noundef %9, ptr noundef %10)
  br label %12

12:                                               ; preds = %8, %2
  %13 = phi i1 [ true, %2 ], [ %11, %8 ]
  ret i1 %13
}

; Function Attrs: nounwind uwtable
define internal zeroext i1 @unlinked_instanceof(ptr noundef %0, ptr noundef %1) #0 {
  %3 = alloca i1, align 1
  %4 = alloca ptr, align 8
  %5 = alloca ptr, align 8
  %6 = alloca ptr, align 8
  %7 = alloca i32, align 4
  %8 = alloca i32, align 4
  %9 = alloca ptr, align 8
  store ptr %0, ptr %4, align 8, !tbaa !8
  store ptr %1, ptr %5, align 8, !tbaa !8
  %10 = load ptr, ptr %4, align 8, !tbaa !8
  %11 = load ptr, ptr %5, align 8, !tbaa !8
  %12 = icmp eq ptr %10, %11
  br i1 %12, label %13, label %14

13:                                               ; preds = %2
  store i1 true, ptr %3, align 1
  br label %139

14:                                               ; preds = %2
  %15 = load ptr, ptr %4, align 8, !tbaa !8
  %16 = getelementptr inbounds nuw %struct._zend_class_entry, ptr %15, i32 0, i32 4
  %17 = load i32, ptr %16, align 4, !tbaa !80
  %18 = and i32 %17, 8
  %19 = icmp ne i32 %18, 0
  br i1 %19, label %20, label %24

20:                                               ; preds = %14
  %21 = load ptr, ptr %4, align 8, !tbaa !8
  %22 = load ptr, ptr %5, align 8, !tbaa !8
  %23 = call zeroext i1 @instanceof_function(ptr noundef %21, ptr noundef %22)
  store i1 %23, ptr %3, align 1
  br label %139

24:                                               ; preds = %14
  %25 = load ptr, ptr %4, align 8, !tbaa !8
  %26 = getelementptr inbounds nuw %struct._zend_class_entry, ptr %25, i32 0, i32 2
  %27 = load ptr, ptr %26, align 8, !tbaa !46
  %28 = icmp ne ptr %27, null
  br i1 %28, label %29, label %56

29:                                               ; preds = %24
  call void @llvm.lifetime.start.p0(i64 8, ptr %6) #19
  %30 = load ptr, ptr %4, align 8, !tbaa !8
  %31 = getelementptr inbounds nuw %struct._zend_class_entry, ptr %30, i32 0, i32 4
  %32 = load i32, ptr %31, align 4, !tbaa !80
  %33 = and i32 %32, 131072
  %34 = icmp ne i32 %33, 0
  br i1 %34, label %35, label %39

35:                                               ; preds = %29
  %36 = load ptr, ptr %4, align 8, !tbaa !8
  %37 = getelementptr inbounds nuw %struct._zend_class_entry, ptr %36, i32 0, i32 2
  %38 = load ptr, ptr %37, align 8, !tbaa !46
  store ptr %38, ptr %6, align 8, !tbaa !8
  br label %44

39:                                               ; preds = %29
  %40 = load ptr, ptr %4, align 8, !tbaa !8
  %41 = getelementptr inbounds nuw %struct._zend_class_entry, ptr %40, i32 0, i32 2
  %42 = load ptr, ptr %41, align 8, !tbaa !46
  %43 = call ptr @zend_lookup_class_ex(ptr noundef %42, ptr noundef null, i32 noundef 1152)
  store ptr %43, ptr %6, align 8, !tbaa !8
  br label %44

44:                                               ; preds = %39, %35
  %45 = load ptr, ptr %6, align 8, !tbaa !8
  %46 = icmp ne ptr %45, null
  br i1 %46, label %47, label %52

47:                                               ; preds = %44
  %48 = load ptr, ptr %6, align 8, !tbaa !8
  %49 = load ptr, ptr %5, align 8, !tbaa !8
  %50 = call zeroext i1 @unlinked_instanceof(ptr noundef %48, ptr noundef %49)
  br i1 %50, label %51, label %52

51:                                               ; preds = %47
  store i1 true, ptr %3, align 1
  store i32 1, ptr %7, align 4
  br label %53

52:                                               ; preds = %47, %44
  store i32 0, ptr %7, align 4
  br label %53

53:                                               ; preds = %52, %51
  call void @llvm.lifetime.end.p0(i64 8, ptr %6) #19
  %54 = load i32, ptr %7, align 4
  switch i32 %54, label %141 [
    i32 0, label %55
    i32 1, label %139
  ]

55:                                               ; preds = %53
  br label %56

56:                                               ; preds = %55, %24
  %57 = load ptr, ptr %4, align 8, !tbaa !8
  %58 = getelementptr inbounds nuw %struct._zend_class_entry, ptr %57, i32 0, i32 37
  %59 = load i32, ptr %58, align 8, !tbaa !100
  %60 = icmp ne i32 %59, 0
  br i1 %60, label %61, label %138

61:                                               ; preds = %56
  call void @llvm.lifetime.start.p0(i64 4, ptr %8) #19
  %62 = load ptr, ptr %4, align 8, !tbaa !8
  %63 = getelementptr inbounds nuw %struct._zend_class_entry, ptr %62, i32 0, i32 4
  %64 = load i32, ptr %63, align 4, !tbaa !80
  %65 = and i32 %64, 262144
  %66 = icmp ne i32 %65, 0
  br i1 %66, label %67, label %90

67:                                               ; preds = %61
  store i32 0, ptr %8, align 4, !tbaa !4
  br label %68

68:                                               ; preds = %86, %67
  %69 = load i32, ptr %8, align 4, !tbaa !4
  %70 = load ptr, ptr %4, align 8, !tbaa !8
  %71 = getelementptr inbounds nuw %struct._zend_class_entry, ptr %70, i32 0, i32 37
  %72 = load i32, ptr %71, align 8, !tbaa !100
  %73 = icmp ult i32 %69, %72
  br i1 %73, label %74, label %89

74:                                               ; preds = %68
  %75 = load ptr, ptr %4, align 8, !tbaa !8
  %76 = getelementptr inbounds nuw %struct._zend_class_entry, ptr %75, i32 0, i32 41
  %77 = load ptr, ptr %76, align 8, !tbaa !46
  %78 = load i32, ptr %8, align 4, !tbaa !4
  %79 = zext i32 %78 to i64
  %80 = getelementptr inbounds nuw ptr, ptr %77, i64 %79
  %81 = load ptr, ptr %80, align 8, !tbaa !8
  %82 = load ptr, ptr %5, align 8, !tbaa !8
  %83 = call zeroext i1 @unlinked_instanceof(ptr noundef %81, ptr noundef %82)
  br i1 %83, label %84, label %85

84:                                               ; preds = %74
  store i1 true, ptr %3, align 1
  store i32 1, ptr %7, align 4
  br label %135

85:                                               ; preds = %74
  br label %86

86:                                               ; preds = %85
  %87 = load i32, ptr %8, align 4, !tbaa !4
  %88 = add i32 %87, 1
  store i32 %88, ptr %8, align 4, !tbaa !4
  br label %68

89:                                               ; preds = %68
  br label %134

90:                                               ; preds = %61
  store i32 0, ptr %8, align 4, !tbaa !4
  br label %91

91:                                               ; preds = %130, %90
  %92 = load i32, ptr %8, align 4, !tbaa !4
  %93 = load ptr, ptr %4, align 8, !tbaa !8
  %94 = getelementptr inbounds nuw %struct._zend_class_entry, ptr %93, i32 0, i32 37
  %95 = load i32, ptr %94, align 8, !tbaa !100
  %96 = icmp ult i32 %92, %95
  br i1 %96, label %97, label %133

97:                                               ; preds = %91
  call void @llvm.lifetime.start.p0(i64 8, ptr %9) #19
  %98 = load ptr, ptr %4, align 8, !tbaa !8
  %99 = getelementptr inbounds nuw %struct._zend_class_entry, ptr %98, i32 0, i32 41
  %100 = load ptr, ptr %99, align 8, !tbaa !46
  %101 = load i32, ptr %8, align 4, !tbaa !4
  %102 = zext i32 %101 to i64
  %103 = getelementptr inbounds nuw %struct._zend_class_name, ptr %100, i64 %102
  %104 = getelementptr inbounds nuw %struct._zend_class_name, ptr %103, i32 0, i32 0
  %105 = load ptr, ptr %104, align 8, !tbaa !135
  %106 = load ptr, ptr %4, align 8, !tbaa !8
  %107 = getelementptr inbounds nuw %struct._zend_class_entry, ptr %106, i32 0, i32 41
  %108 = load ptr, ptr %107, align 8, !tbaa !46
  %109 = load i32, ptr %8, align 4, !tbaa !4
  %110 = zext i32 %109 to i64
  %111 = getelementptr inbounds nuw %struct._zend_class_name, ptr %108, i64 %110
  %112 = getelementptr inbounds nuw %struct._zend_class_name, ptr %111, i32 0, i32 1
  %113 = load ptr, ptr %112, align 8, !tbaa !137
  %114 = call ptr @zend_lookup_class_ex(ptr noundef %105, ptr noundef %113, i32 noundef 1152)
  store ptr %114, ptr %9, align 8, !tbaa !8
  %115 = load ptr, ptr %9, align 8, !tbaa !8
  %116 = icmp ne ptr %115, null
  br i1 %116, label %117, label %126

117:                                              ; preds = %97
  %118 = load ptr, ptr %9, align 8, !tbaa !8
  %119 = load ptr, ptr %4, align 8, !tbaa !8
  %120 = icmp ne ptr %118, %119
  br i1 %120, label %121, label %126

121:                                              ; preds = %117
  %122 = load ptr, ptr %9, align 8, !tbaa !8
  %123 = load ptr, ptr %5, align 8, !tbaa !8
  %124 = call zeroext i1 @unlinked_instanceof(ptr noundef %122, ptr noundef %123)
  br i1 %124, label %125, label %126

125:                                              ; preds = %121
  store i1 true, ptr %3, align 1
  store i32 1, ptr %7, align 4
  br label %127

126:                                              ; preds = %121, %117, %97
  store i32 0, ptr %7, align 4
  br label %127

127:                                              ; preds = %126, %125
  call void @llvm.lifetime.end.p0(i64 8, ptr %9) #19
  %128 = load i32, ptr %7, align 4
  switch i32 %128, label %135 [
    i32 0, label %129
  ]

129:                                              ; preds = %127
  br label %130

130:                                              ; preds = %129
  %131 = load i32, ptr %8, align 4, !tbaa !4
  %132 = add i32 %131, 1
  store i32 %132, ptr %8, align 4, !tbaa !4
  br label %91

133:                                              ; preds = %91
  br label %134

134:                                              ; preds = %133, %89
  store i32 0, ptr %7, align 4
  br label %135

135:                                              ; preds = %134, %127, %84
  call void @llvm.lifetime.end.p0(i64 4, ptr %8) #19
  %136 = load i32, ptr %7, align 4
  switch i32 %136, label %141 [
    i32 0, label %137
    i32 1, label %139
  ]

137:                                              ; preds = %135
  br label %138

138:                                              ; preds = %137, %56
  store i1 false, ptr %3, align 1
  br label %139

139:                                              ; preds = %138, %135, %53, %20, %13
  %140 = load i1, ptr %3, align 1
  ret i1 %140

141:                                              ; preds = %135, %53
  unreachable
}