; Function Attrs: nounwind uwtable
define internal fastcc zeroext i1 @unlinked_instanceof(ptr noundef %0, ptr noundef nonnull %1) unnamed_addr #2 {
  %3 = icmp eq ptr %0, %1
  br i1 %3, label %.thread60, label %4

4:                                                ; preds = %2
  %5 = getelementptr inbounds nuw i8, ptr %0, i64 28
  %6 = load i32, ptr %5, align 4, !tbaa !22
  %7 = and i32 %6, 8
  %.not = icmp eq i32 %7, 0
  br i1 %.not, label %9, label %instanceof_function.exit

instanceof_function.exit:                         ; preds = %4
  %8 = tail call zeroext i1 @instanceof_function_slow(ptr noundef nonnull %0, ptr noundef nonnull %1) #17
  br label %.thread60

9:                                                ; preds = %4
  %10 = getelementptr inbounds nuw i8, ptr %0, i64 16
  %11 = load ptr, ptr %10, align 8, !tbaa !21
  %.not45 = icmp eq ptr %11, null
  br i1 %.not45, label %.thread57, label %12

12:                                               ; preds = %9
  %13 = and i32 %6, 131072
  %.not46 = icmp eq i32 %13, 0
  br i1 %.not46, label %14, label %.thread

14:                                               ; preds = %12
  %15 = tail call ptr @zend_lookup_class_ex(ptr noundef nonnull %11, ptr noundef null, i32 noundef 1152) #17
  %.not47 = icmp eq ptr %15, null
  br i1 %.not47, label %.thread57, label %.thread

.thread:                                          ; preds = %12, %14
  %.04056 = phi ptr [ %15, %14 ], [ %11, %12 ]
  %16 = tail call fastcc zeroext i1 @unlinked_instanceof(ptr noundef nonnull %.04056, ptr noundef %1)
  br i1 %16, label %.thread60, label %.thread57

.thread57:                                        ; preds = %.thread, %14, %9
  %17 = getelementptr inbounds nuw i8, ptr %0, i64 424
  %18 = load i32, ptr %17, align 8, !tbaa !148
  %.not48 = icmp eq i32 %18, 0
  br i1 %.not48, label %.thread60, label %19

19:                                               ; preds = %.thread57
  %20 = load i32, ptr %5, align 4, !tbaa !22
  %21 = and i32 %20, 262144
  %.not49 = icmp eq i32 %21, 0
  %22 = getelementptr inbounds nuw i8, ptr %0, i64 440
  br i1 %.not49, label %.lr.ph70, label %.lr.ph

23:                                               ; preds = %.lr.ph
  %indvars.iv.next = add nuw nsw i64 %indvars.iv, 1
  %24 = load i32, ptr %17, align 8, !tbaa !148
  %25 = zext i32 %24 to i64
  %26 = icmp samesign ult i64 %indvars.iv.next, %25
  br i1 %26, label %.lr.ph, label %.thread60

.lr.ph:                                           ; preds = %19, %23
  %indvars.iv = phi i64 [ %indvars.iv.next, %23 ], [ 0, %19 ]
  %27 = load ptr, ptr %22, align 8, !tbaa !21
  %28 = getelementptr inbounds nuw ptr, ptr %27, i64 %indvars.iv
  %29 = load ptr, ptr %28, align 8, !tbaa !88
  %30 = tail call fastcc zeroext i1 @unlinked_instanceof(ptr noundef %29, ptr noundef %1)
  br i1 %30, label %.thread60, label %23

.lr.ph70:                                         ; preds = %19, %.critedge
  %indvars.iv79 = phi i64 [ %indvars.iv.next80, %.critedge ], [ 0, %19 ]
  %31 = load ptr, ptr %22, align 8, !tbaa !21
  %32 = getelementptr inbounds nuw %struct._zend_class_name, ptr %31, i64 %indvars.iv79
  %33 = load ptr, ptr %32, align 8, !tbaa !157
  %34 = getelementptr inbounds nuw i8, ptr %32, i64 8
  %35 = load ptr, ptr %34, align 8, !tbaa !159
  %36 = tail call ptr @zend_lookup_class_ex(ptr noundef %33, ptr noundef %35, i32 noundef 1152) #17
  %.not50 = icmp eq ptr %36, null
  %.not51 = icmp eq ptr %36, %0
  %or.cond = or i1 %.not50, %.not51
  br i1 %or.cond, label %.critedge, label %37

37:                                               ; preds = %.lr.ph70
  %38 = tail call fastcc zeroext i1 @unlinked_instanceof(ptr noundef nonnull %36, ptr noundef %1)
  br i1 %38, label %.thread60, label %.critedge

.critedge:                                        ; preds = %37, %.lr.ph70
  %indvars.iv.next80 = add nuw nsw i64 %indvars.iv79, 1
  %39 = load i32, ptr %17, align 8, !tbaa !148
  %40 = zext i32 %39 to i64
  %41 = icmp samesign ult i64 %indvars.iv.next80, %40
  br i1 %41, label %.lr.ph70, label %.thread60

.thread60:                                        ; preds = %.lr.ph, %23, %37, %.critedge, %.thread57, %.thread, %2, %instanceof_function.exit
  %.0 = phi i1 [ %8, %instanceof_function.exit ], [ true, %2 ], [ true, %.thread ], [ false, %.thread57 ], [ true, %37 ], [ false, %.critedge ], [ %30, %23 ], [ %30, %.lr.ph ]
  ret i1 %.0
}